; Function Attrs: nounwind uwtable
define internal fastcc range(i32 0, 2) i32 @test_exec_GENM_ses(i32 noundef range(i32 0, 2) %0, i32 noundef range(i32 -1, 1) %1, i32 noundef range(i32 -2, 1) %2) unnamed_addr #0 {
  %4 = tail call fastcc ptr @set_up(ptr noundef nonnull @__func__.test_exec_GENM_ses)
  %5 = icmp eq ptr %4, null
  br i1 %5, label %30, label %6

6:                                                ; preds = %3
  %.not = icmp eq i32 %0, 0
  br i1 %.not, label %11, label %7

7:                                                ; preds = %6
  %8 = getelementptr inbounds nuw i8, ptr %4, i64 8
  %9 = load ptr, ptr %8, align 8, !tbaa !23
  %10 = tail call i32 @OSSL_CMP_CTX_set_transfer_cb_arg(ptr noundef %9, ptr noundef null) #4
  br label %11

11:                                               ; preds = %7, %6
  %12 = getelementptr inbounds nuw i8, ptr %4, i64 8
  %13 = load ptr, ptr %12, align 8, !tbaa !23
  %14 = getelementptr inbounds nuw i8, ptr %13, i64 104
  store i32 %1, ptr %14, align 8, !tbaa !29
  %15 = getelementptr inbounds nuw i8, ptr %4, i64 28
  store i32 %2, ptr %15, align 4, !tbaa !17
  %16 = tail call fastcc i32 @execute_exec_GENM_ses_test_single(ptr noundef nonnull readonly %4)
  %.not.i = icmp eq i32 %16, 0
  br i1 %.not.i, label %execute_exec_GENM_ses_test.exit, label %17

17:                                               ; preds = %11
  %18 = load ptr, ptr %12, align 8, !tbaa !23
  %19 = tail call i32 @OSSL_CMP_CTX_reinit(ptr noundef %18) #4
  %.not3.i = icmp eq i32 %19, 0
  br i1 %.not3.i, label %execute_exec_GENM_ses_test.exit, label %20

20:                                               ; preds = %17
  %21 = tail call fastcc i32 @execute_exec_GENM_ses_test_single(ptr noundef nonnull readonly %4)
  %22 = icmp ne i32 %21, 0
  %23 = zext i1 %22 to i32
  br label %execute_exec_GENM_ses_test.exit

execute_exec_GENM_ses_test.exit:                  ; preds = %11, %17, %20
  %24 = phi i32 [ 0, %17 ], [ 0, %11 ], [ %23, %20 ]
  %25 = load ptr, ptr %12, align 8, !tbaa !23
  tail call void @OSSL_CMP_CTX_free(ptr noundef %25) #4
  %26 = getelementptr inbounds nuw i8, ptr %4, i64 16
  %27 = load ptr, ptr %26, align 8, !tbaa !24
  tail call void @ossl_cmp_mock_srv_free(ptr noundef %27) #4
  %28 = getelementptr inbounds nuw i8, ptr %4, i64 32
  %29 = load ptr, ptr %28, align 8, !tbaa !25
  tail call void @OPENSSL_sk_free(ptr noundef %29) #4
  tail call void @CRYPTO_free(ptr noundef nonnull %4, ptr noundef nonnull @.str.14, i32 noundef 51) #4
  br label %30

30:                                               ; preds = %3, %execute_exec_GENM_ses_test.exit
  %.011 = phi i32 [ %24, %execute_exec_GENM_ses_test.exit ], [ 0, %3 ]
  ret i32 %.011
}